target datalayout = "e-m:e-p270:32:32-p271:32:32-p272:64:64-i64:64-i128:128-f80:128-n8:16:32:64-S128"
target triple = "x86_64-pc-linux-gnu"

%"class.icu_77::SharedDateFormatSymbols" = type { %"class.icu_77::SharedObject", %"class.icu_77::DateFormatSymbols" }
%"class.icu_77::SharedObject" = type { %"class.icu_77::UObject", i32, %"struct.std::atomic", ptr }
%"class.icu_77::UObject" = type { ptr }
%"struct.std::atomic" = type { %"struct.std::__atomic_base" }
%"struct.std::__atomic_base" = type { i32 }
%"class.icu_77::DateFormatSymbols" = type { %"class.icu_77::UObject", ptr, i32, ptr, i32, ptr, i32, ptr, i32, ptr, i32, ptr, i32, ptr, i32, ptr, i32, ptr, i32, ptr, i32, ptr, i32, ptr, i32, ptr, i32, ptr, i32, ptr, i32, ptr, i32, ptr, i32, ptr, i32, ptr, i32, %"class.icu_77::UnicodeString", ptr, i32, ptr, i32, ptr, i32, ptr, i32, ptr, i32, ptr, i32, ptr, i32, ptr, i32, ptr, i32, ptr, ptr, i32, i32, %"class.icu_77::Locale", %"class.icu_77::UnicodeString", [14 x [2 x i8]], ptr, i32, ptr, i32, ptr, i32, ptr, i32, ptr, i32, ptr, i32, ptr, ptr }
%"class.icu_77::Locale" = type <{ %"class.icu_77::UObject", [12 x i8], [6 x i8], [4 x i8], [2 x i8], i32, [4 x i8], ptr, [157 x i8], [3 x i8], ptr, i8, [7 x i8] }>
%"class.icu_77::UnicodeString" = type { %"class.icu_77::Replaceable", %"union.icu_77::UnicodeString::StackBufferOrFields" }
%"class.icu_77::Replaceable" = type { %"class.icu_77::UObject" }
%"union.icu_77::UnicodeString::StackBufferOrFields" = type { %struct.anon.0, [32 x i8] }
%struct.anon.0 = type { i16, i32, i32, ptr }

@_ZN6icu_7717DateFormatSymbolsC1ERKS0_ = unnamed_addr alias void (ptr, ptr), ptr @_ZN6icu_7717DateFormatSymbolsC2ERKS0_

; Function Attrs: mustprogress nounwind uwtable
define linkonce_odr noundef nonnull align 8 dereferenceable(976) ptr @_ZNK6icu_7723SharedDateFormatSymbols3getEv(ptr noundef nonnull align 8 dereferenceable(1000) %0) #0 comdat align 2 {
  %2 = alloca ptr, align 8
  store ptr %0, ptr %2, align 8, !tbaa !23
  %3 = load ptr, ptr %2, align 8
  %4 = getelementptr inbounds nuw %"class.icu_77::SharedDateFormatSymbols", ptr %3, i32 0, i32 1
  ret ptr %4
}

; Function Attrs: inlinehint mustprogress nounwind uwtable
define internal noundef signext i8 @_ZL9U_FAILURE10UErrorCode(i32 noundef %0) #2 {
  %2 = alloca i32, align 4
  store i32 %0, ptr %2, align 4, !tbaa !15
  %3 = load i32, ptr %2, align 4, !tbaa !15
  %4 = icmp sgt i32 %3, 0
  %5 = zext i1 %4 to i8
  ret i8 %5
}

; Function Attrs: mustprogress uwtable
define noundef ptr @_ZN6icu_7717DateFormatSymbols15createForLocaleERKNS_6LocaleER10UErrorCode(ptr noundef nonnull align 8 dereferenceable(217) %0, ptr noundef nonnull align 4 dereferenceable(4) %1) #1 align 2 personality ptr @__gxx_personality_v0 {
  %3 = alloca ptr, align 8
  %4 = alloca ptr, align 8
  %5 = alloca ptr, align 8
  %6 = alloca ptr, align 8
  %7 = alloca i32, align 4
  %8 = alloca ptr, align 8
  %9 = alloca ptr, align 8
  %10 = alloca i1, align 1
  %11 = alloca ptr, align 8
  %12 = alloca i32, align 4
  store ptr %0, ptr %4, align 8, !tbaa !29
  store ptr %1, ptr %5, align 8, !tbaa !22
  call void @llvm.lifetime.start.p0(i64 8, ptr %6) #14
  store ptr null, ptr %6, align 8, !tbaa !23
  %13 = load ptr, ptr %4, align 8, !tbaa !29
  %14 = load ptr, ptr %5, align 8, !tbaa !22
  call void @_ZN6icu_7712UnifiedCache11getByLocaleINS_23SharedDateFormatSymbolsEEEvRKNS_6LocaleERPKT_R10UErrorCode(ptr noundef nonnull align 8 dereferenceable(217) %13, ptr noundef nonnull align 8 dereferenceable(8) %6, ptr noundef nonnull align 4 dereferenceable(4) %14)
  %15 = load ptr, ptr %5, align 8, !tbaa !22
  %16 = load i32, ptr %15, align 4, !tbaa !15
  %17 = call noundef signext i8 @_ZL9U_FAILURE10UErrorCode(i32 noundef %16)
  %18 = icmp ne i8 %17, 0
  br i1 %18, label %19, label %20

19:                                               ; preds = %2
  store ptr null, ptr %3, align 8
  store i32 1, ptr %7, align 4
  br label %46

20:                                               ; preds = %2
  call void @llvm.lifetime.start.p0(i64 8, ptr %8) #14
  %21 = call noundef ptr @_ZN6icu_777UMemorynwEm(i64 noundef 976) #14
  %22 = icmp eq ptr %21, null
  store i1 false, ptr %10, align 1
  br i1 %22, label %28, label %23

23:                                               ; preds = %20
  store ptr %21, ptr %9, align 8
  store i1 true, ptr %10, align 1
  %24 = load ptr, ptr %6, align 8, !tbaa !23
  %25 = invoke noundef nonnull align 8 dereferenceable(976) ptr @_ZNK6icu_7723SharedDateFormatSymbols3getEv(ptr noundef nonnull align 8 dereferenceable(1000) %24)
          to label %26 unwind label %35

26:                                               ; preds = %23
  invoke void @_ZN6icu_7717DateFormatSymbolsC1ERKS0_(ptr noundef nonnull align 8 dereferenceable(976) %21, ptr noundef nonnull align 8 dereferenceable(976) %25)
          to label %27 unwind label %35

27:                                               ; preds = %26
  br label %28

28:                                               ; preds = %27, %20
  %29 = phi ptr [ %21, %27 ], [ null, %20 ]
  store ptr %29, ptr %8, align 8, !tbaa !31
  %30 = load ptr, ptr %6, align 8, !tbaa !23
  call void @_ZNK6icu_7712SharedObject9removeRefEv(ptr noundef nonnull align 8 dereferenceable(24) %30)
  %31 = load ptr, ptr %8, align 8, !tbaa !31
  %32 = icmp eq ptr %31, null
  br i1 %32, label %33, label %43

33:                                               ; preds = %28
  %34 = load ptr, ptr %5, align 8, !tbaa !22
  store i32 7, ptr %34, align 4, !tbaa !15
  store ptr null, ptr %3, align 8
  store i32 1, ptr %7, align 4
  br label %45

35:                                               ; preds = %26, %23
  %36 = landingpad { ptr, i32 }
          cleanup
  %37 = extractvalue { ptr, i32 } %36, 0
  store ptr %37, ptr %11, align 8
  %38 = extractvalue { ptr, i32 } %36, 1
  store i32 %38, ptr %12, align 4
  %39 = load i1, ptr %10, align 1
  br i1 %39, label %40, label %42

40:                                               ; preds = %35
  %41 = load ptr, ptr %9, align 8
  call void @_ZN6icu_777UMemorydlEPv(ptr noundef %41) #14
  br label %42

42:                                               ; preds = %40, %35
  call void @llvm.lifetime.end.p0(i64 8, ptr %8) #14
  call void @llvm.lifetime.end.p0(i64 8, ptr %6) #14
  br label %48

43:                                               ; preds = %28
  %44 = load ptr, ptr %8, align 8, !tbaa !31
  store ptr %44, ptr %3, align 8
  store i32 1, ptr %7, align 4
  br label %45

45:                                               ; preds = %43, %33
  call void @llvm.lifetime.end.p0(i64 8, ptr %8) #14
  br label %46

46:                                               ; preds = %45, %19
  call void @llvm.lifetime.end.p0(i64 8, ptr %6) #14
  %47 = load ptr, ptr %3, align 8
  ret ptr %47

48:                                               ; preds = %42
  %49 = load ptr, ptr %11, align 8
  %50 = load i32, ptr %12, align 4
  %51 = insertvalue { ptr, i32 } poison, ptr %49, 0
  %52 = insertvalue { ptr, i32 } %51, i32 %50, 1
  resume { ptr, i32 } %52
}