; Function Attrs: mustprogress uwtable
define noundef ptr @_ZN6icu_7717DateFormatSymbols15createForLocaleERKNS_6LocaleER10UErrorCode(ptr noundef nonnull align 8 dereferenceable(217) %0, ptr noundef nonnull align 4 dereferenceable(4) %1) local_unnamed_addr #1 align 2 personality ptr @__gxx_personality_v0 {
  %3 = alloca ptr, align 8
  call void @llvm.lifetime.start.p0(i64 8, ptr nonnull %3) #19
  store ptr null, ptr %3, align 8, !tbaa !17
  call void @_ZN6icu_7712UnifiedCache11getByLocaleINS_23SharedDateFormatSymbolsEEEvRKNS_6LocaleERPKT_R10UErrorCode(ptr noundef nonnull align 8 dereferenceable(217) %0, ptr noundef nonnull align 8 dereferenceable(8) %3, ptr noundef nonnull align 4 dereferenceable(4) %1)
  %4 = load i32, ptr %1, align 4, !tbaa !13
  %5 = icmp slt i32 %4, 1
  br i1 %5, label %6, label %17

6:                                                ; preds = %2
  %7 = call noundef ptr @_ZN6icu_777UMemorynwEm(i64 noundef 976) #19
  %8 = icmp eq ptr %7, null
  %9 = load ptr, ptr %3, align 8, !tbaa !17
  br i1 %8, label %14, label %10

10:                                               ; preds = %6
  %11 = getelementptr inbounds nuw i8, ptr %9, i64 24
  invoke void @_ZN6icu_7717DateFormatSymbolsC1ERKS0_(ptr noundef nonnull align 8 dereferenceable(976) %7, ptr noundef nonnull align 8 dereferenceable(976) %11)
          to label %12 unwind label %15

12:                                               ; preds = %10
  %13 = load ptr, ptr %3, align 8, !tbaa !17
  call void @_ZNK6icu_7712SharedObject9removeRefEv(ptr noundef nonnull align 8 dereferenceable(24) %13)
  br label %17

14:                                               ; preds = %6
  call void @_ZNK6icu_7712SharedObject9removeRefEv(ptr noundef nonnull align 8 dereferenceable(24) %9)
  store i32 7, ptr %1, align 4, !tbaa !13
  br label %17

15:                                               ; preds = %10
  %16 = landingpad { ptr, i32 }
          cleanup
  call void @_ZN6icu_777UMemorydlEPv(ptr noundef nonnull %7) #19
  call void @llvm.lifetime.end.p0(i64 8, ptr nonnull %3) #19
  resume { ptr, i32 } %16

17:                                               ; preds = %12, %14, %2
  %.0 = phi ptr [ null, %2 ], [ null, %14 ], [ %7, %12 ]
  call void @llvm.lifetime.end.p0(i64 8, ptr nonnull %3) #19
  ret ptr %.0
}